target datalayout = "e-m:e-p270:32:32-p271:32:32-p272:64:64-i64:64-i128:128-f80:128-n8:16:32:64-S128"
target triple = "x86_64-pc-linux-gnu"

%struct.AVFilterContext = type { ptr, ptr, ptr, ptr, ptr, i32, ptr, ptr, i32, ptr, ptr, i32, i32, ptr, ptr, ptr, ptr, i32, ptr, i32, i32 }
%struct.DeflickerContext = type { ptr, i32, i32, i32, i32, i32, i32, [4 x i32], [4 x i32], ptr, [129 x float], [129 x float], %struct.FFBufQueue, i32, ptr, ptr, ptr }
%struct.FFBufQueue = type { [129 x ptr], i16, i16 }
%struct.AVFilterLink = type { ptr, ptr, ptr, ptr, i32, i32, i32, i32, %struct.AVRational, i32, i32, i32, %struct.AVChannelLayout, %struct.AVRational, ptr, i32, %struct.AVFilterFormatsConfig, %struct.AVFilterFormatsConfig }
%struct.AVChannelLayout = type { i32, i32, %union.anon.1, ptr }
%union.anon.1 = type { i64 }
%struct.AVRational = type { i32, i32 }
%struct.AVFilterFormatsConfig = type { ptr, ptr, ptr, ptr, ptr }
%struct.AVPixFmtDescriptor = type { ptr, i8, i8, i8, i64, [4 x %struct.AVComponentDescriptor], ptr }
%struct.AVComponentDescriptor = type { i32, i32, i32, i32, i32 }

; Function Attrs: nounwind uwtable
define internal i32 @config_input(ptr noundef %0) #1 {
  %2 = alloca i32, align 4
  %3 = alloca ptr, align 8
  %4 = alloca ptr, align 8
  %5 = alloca ptr, align 8
  %6 = alloca ptr, align 8
  %7 = alloca i32, align 4
  store ptr %0, ptr %3, align 8, !tbaa !24
  call void @llvm.lifetime.start.p0(i64 8, ptr %4) #13
  %8 = load ptr, ptr %3, align 8, !tbaa !24
  %9 = getelementptr inbounds nuw %struct.AVFilterLink, ptr %8, i32 0, i32 5
  %10 = load i32, ptr %9, align 4, !tbaa !61
  %11 = call ptr @av_pix_fmt_desc_get(i32 noundef %10)
  store ptr %11, ptr %4, align 8, !tbaa !62
  call void @llvm.lifetime.start.p0(i64 8, ptr %5) #13
  %12 = load ptr, ptr %3, align 8, !tbaa !24
  %13 = getelementptr inbounds nuw %struct.AVFilterLink, ptr %12, i32 0, i32 2
  %14 = load ptr, ptr %13, align 8, !tbaa !28
  store ptr %14, ptr %5, align 8, !tbaa !4
  call void @llvm.lifetime.start.p0(i64 8, ptr %6) #13
  %15 = load ptr, ptr %5, align 8, !tbaa !4
  %16 = getelementptr inbounds nuw %struct.AVFilterContext, ptr %15, i32 0, i32 9
  %17 = load ptr, ptr %16, align 8, !tbaa !9
  store ptr %17, ptr %6, align 8, !tbaa !22
  %18 = load ptr, ptr %4, align 8, !tbaa !62
  %19 = getelementptr inbounds nuw %struct.AVPixFmtDescriptor, ptr %18, i32 0, i32 1
  %20 = load i8, ptr %19, align 8, !tbaa !64
  %21 = zext i8 %20 to i32
  %22 = load ptr, ptr %6, align 8, !tbaa !22
  %23 = getelementptr inbounds nuw %struct.DeflickerContext, ptr %22, i32 0, i32 6
  store i32 %21, ptr %23, align 4, !tbaa !55
  %24 = load ptr, ptr %4, align 8, !tbaa !62
  %25 = getelementptr inbounds nuw %struct.AVPixFmtDescriptor, ptr %24, i32 0, i32 3
  %26 = load i8, ptr %25, align 2, !tbaa !67
  %27 = call i1 @llvm.is.constant.i8(i8 %26)
  br i1 %27, label %39, label %28

28:                                               ; preds = %1
  %29 = load ptr, ptr %3, align 8, !tbaa !24
  %30 = getelementptr inbounds nuw %struct.AVFilterLink, ptr %29, i32 0, i32 7
  %31 = load i32, ptr %30, align 4, !tbaa !49
  %32 = sub nsw i32 0, %31
  %33 = load ptr, ptr %4, align 8, !tbaa !62
  %34 = getelementptr inbounds nuw %struct.AVPixFmtDescriptor, ptr %33, i32 0, i32 3
  %35 = load i8, ptr %34, align 2, !tbaa !67
  %36 = zext i8 %35 to i32
  %37 = ashr i32 %32, %36
  %38 = sub nsw i32 0, %37
  br label %55

39:                                               ; preds = %1
  %40 = load ptr, ptr %3, align 8, !tbaa !24
  %41 = getelementptr inbounds nuw %struct.AVFilterLink, ptr %40, i32 0, i32 7
  %42 = load i32, ptr %41, align 4, !tbaa !49
  %43 = load ptr, ptr %4, align 8, !tbaa !62
  %44 = getelementptr inbounds nuw %struct.AVPixFmtDescriptor, ptr %43, i32 0, i32 3
  %45 = load i8, ptr %44, align 2, !tbaa !67
  %46 = zext i8 %45 to i32
  %47 = shl i32 1, %46
  %48 = add nsw i32 %42, %47
  %49 = sub nsw i32 %48, 1
  %50 = load ptr, ptr %4, align 8, !tbaa !62
  %51 = getelementptr inbounds nuw %struct.AVPixFmtDescriptor, ptr %50, i32 0, i32 3
  %52 = load i8, ptr %51, align 2, !tbaa !67
  %53 = zext i8 %52 to i32
  %54 = ashr i32 %49, %53
  br label %55

55:                                               ; preds = %39, %28
  %56 = phi i32 [ %38, %28 ], [ %54, %39 ]
  %57 = load ptr, ptr %6, align 8, !tbaa !22
  %58 = getelementptr inbounds nuw %struct.DeflickerContext, ptr %57, i32 0, i32 8
  %59 = getelementptr inbounds [4 x i32], ptr %58, i64 0, i64 2
  store i32 %56, ptr %59, align 8, !tbaa !54
  %60 = load ptr, ptr %6, align 8, !tbaa !22
  %61 = getelementptr inbounds nuw %struct.DeflickerContext, ptr %60, i32 0, i32 8
  %62 = getelementptr inbounds [4 x i32], ptr %61, i64 0, i64 1
  store i32 %56, ptr %62, align 4, !tbaa !54
  %63 = load ptr, ptr %3, align 8, !tbaa !24
  %64 = getelementptr inbounds nuw %struct.AVFilterLink, ptr %63, i32 0, i32 7
  %65 = load i32, ptr %64, align 4, !tbaa !49
  %66 = load ptr, ptr %6, align 8, !tbaa !22
  %67 = getelementptr inbounds nuw %struct.DeflickerContext, ptr %66, i32 0, i32 8
  %68 = getelementptr inbounds [4 x i32], ptr %67, i64 0, i64 3
  store i32 %65, ptr %68, align 4, !tbaa !54
  %69 = load ptr, ptr %6, align 8, !tbaa !22
  %70 = getelementptr inbounds nuw %struct.DeflickerContext, ptr %69, i32 0, i32 8
  %71 = getelementptr inbounds [4 x i32], ptr %70, i64 0, i64 0
  store i32 %65, ptr %71, align 8, !tbaa !54
  %72 = load ptr, ptr %4, align 8, !tbaa !62
  %73 = getelementptr inbounds nuw %struct.AVPixFmtDescriptor, ptr %72, i32 0, i32 2
  %74 = load i8, ptr %73, align 1, !tbaa !68
  %75 = call i1 @llvm.is.constant.i8(i8 %74)
  br i1 %75, label %87, label %76

76:                                               ; preds = %55
  %77 = load ptr, ptr %3, align 8, !tbaa !24
  %78 = getelementptr inbounds nuw %struct.AVFilterLink, ptr %77, i32 0, i32 6
  %79 = load i32, ptr %78, align 8, !tbaa !48
  %80 = sub nsw i32 0, %79
  %81 = load ptr, ptr %4, align 8, !tbaa !62
  %82 = getelementptr inbounds nuw %struct.AVPixFmtDescriptor, ptr %81, i32 0, i32 2
  %83 = load i8, ptr %82, align 1, !tbaa !68
  %84 = zext i8 %83 to i32
  %85 = ashr i32 %80, %84
  %86 = sub nsw i32 0, %85
  br label %103

87:                                               ; preds = %55
  %88 = load ptr, ptr %3, align 8, !tbaa !24
  %89 = getelementptr inbounds nuw %struct.AVFilterLink, ptr %88, i32 0, i32 6
  %90 = load i32, ptr %89, align 8, !tbaa !48
  %91 = load ptr, ptr %4, align 8, !tbaa !62
  %92 = getelementptr inbounds nuw %struct.AVPixFmtDescriptor, ptr %91, i32 0, i32 2
  %93 = load i8, ptr %92, align 1, !tbaa !68
  %94 = zext i8 %93 to i32
  %95 = shl i32 1, %94
  %96 = add nsw i32 %90, %95
  %97 = sub nsw i32 %96, 1
  %98 = load ptr, ptr %4, align 8, !tbaa !62
  %99 = getelementptr inbounds nuw %struct.AVPixFmtDescriptor, ptr %98, i32 0, i32 2
  %100 = load i8, ptr %99, align 1, !tbaa !68
  %101 = zext i8 %100 to i32
  %102 = ashr i32 %97, %101
  br label %103

103:                                              ; preds = %87, %76
  %104 = phi i32 [ %86, %76 ], [ %102, %87 ]
  %105 = load ptr, ptr %6, align 8, !tbaa !22
  %106 = getelementptr inbounds nuw %struct.DeflickerContext, ptr %105, i32 0, i32 7
  %107 = getelementptr inbounds [4 x i32], ptr %106, i64 0, i64 2
  store i32 %104, ptr %107, align 8, !tbaa !54
  %108 = load ptr, ptr %6, align 8, !tbaa !22
  %109 = getelementptr inbounds nuw %struct.DeflickerContext, ptr %108, i32 0, i32 7
  %110 = getelementptr inbounds [4 x i32], ptr %109, i64 0, i64 1
  store i32 %104, ptr %110, align 4, !tbaa !54
  %111 = load ptr, ptr %3, align 8, !tbaa !24
  %112 = getelementptr inbounds nuw %struct.AVFilterLink, ptr %111, i32 0, i32 6
  %113 = load i32, ptr %112, align 8, !tbaa !48
  %114 = load ptr, ptr %6, align 8, !tbaa !22
  %115 = getelementptr inbounds nuw %struct.DeflickerContext, ptr %114, i32 0, i32 7
  %116 = getelementptr inbounds [4 x i32], ptr %115, i64 0, i64 3
  store i32 %113, ptr %116, align 4, !tbaa !54
  %117 = load ptr, ptr %6, align 8, !tbaa !22
  %118 = getelementptr inbounds nuw %struct.DeflickerContext, ptr %117, i32 0, i32 7
  %119 = getelementptr inbounds [4 x i32], ptr %118, i64 0, i64 0
  store i32 %113, ptr %119, align 8, !tbaa !54
  %120 = load ptr, ptr %4, align 8, !tbaa !62
  %121 = getelementptr inbounds nuw %struct.AVPixFmtDescriptor, ptr %120, i32 0, i32 5
  %122 = getelementptr inbounds [4 x %struct.AVComponentDescriptor], ptr %121, i64 0, i64 0
  %123 = getelementptr inbounds nuw %struct.AVComponentDescriptor, ptr %122, i32 0, i32 4
  %124 = load i32, ptr %123, align 8, !tbaa !69
  %125 = load ptr, ptr %6, align 8, !tbaa !22
  %126 = getelementptr inbounds nuw %struct.DeflickerContext, ptr %125, i32 0, i32 5
  store i32 %124, ptr %126, align 8, !tbaa !56
  %127 = load ptr, ptr %6, align 8, !tbaa !22
  %128 = getelementptr inbounds nuw %struct.DeflickerContext, ptr %127, i32 0, i32 5
  %129 = load i32, ptr %128, align 8, !tbaa !56
  %130 = icmp eq i32 %129, 8
  br i1 %130, label %131, label %136

131:                                              ; preds = %103
  %132 = load ptr, ptr %6, align 8, !tbaa !22
  %133 = getelementptr inbounds nuw %struct.DeflickerContext, ptr %132, i32 0, i32 16
  store ptr @deflicker8, ptr %133, align 8, !tbaa !52
  %134 = load ptr, ptr %6, align 8, !tbaa !22
  %135 = getelementptr inbounds nuw %struct.DeflickerContext, ptr %134, i32 0, i32 15
  store ptr @calc_avgy8, ptr %135, align 8, !tbaa !44
  br label %141

136:                                              ; preds = %103
  %137 = load ptr, ptr %6, align 8, !tbaa !22
  %138 = getelementptr inbounds nuw %struct.DeflickerContext, ptr %137, i32 0, i32 16
  store ptr @deflicker16, ptr %138, align 8, !tbaa !52
  %139 = load ptr, ptr %6, align 8, !tbaa !22
  %140 = getelementptr inbounds nuw %struct.DeflickerContext, ptr %139, i32 0, i32 15
  store ptr @calc_avgy16, ptr %140, align 8, !tbaa !44
  br label %141

141:                                              ; preds = %136, %131
  %142 = load ptr, ptr %6, align 8, !tbaa !22
  %143 = getelementptr inbounds nuw %struct.DeflickerContext, ptr %142, i32 0, i32 5
  %144 = load i32, ptr %143, align 8, !tbaa !56
  %145 = shl i32 1, %144
  %146 = sext i32 %145 to i64
  %147 = call noalias ptr @av_calloc(i64 noundef %146, i64 noundef 8)
  %148 = load ptr, ptr %6, align 8, !tbaa !22
  %149 = getelementptr inbounds nuw %struct.DeflickerContext, ptr %148, i32 0, i32 9
  store ptr %147, ptr %149, align 8, !tbaa !71
  %150 = load ptr, ptr %6, align 8, !tbaa !22
  %151 = getelementptr inbounds nuw %struct.DeflickerContext, ptr %150, i32 0, i32 9
  %152 = load ptr, ptr %151, align 8, !tbaa !71
  %153 = icmp ne ptr %152, null
  br i1 %153, label %155, label %154

154:                                              ; preds = %141
  store i32 -12, ptr %2, align 4
  store i32 1, ptr %7, align 4
  br label %181

155:                                              ; preds = %141
  %156 = load ptr, ptr %6, align 8, !tbaa !22
  %157 = getelementptr inbounds nuw %struct.DeflickerContext, ptr %156, i32 0, i32 2
  %158 = load i32, ptr %157, align 4, !tbaa !72
  switch i32 %158, label %180 [
    i32 6, label %159
    i32 0, label %162
    i32 1, label %165
    i32 2, label %168
    i32 3, label %171
    i32 4, label %174
    i32 5, label %177
  ]

159:                                              ; preds = %155
  %160 = load ptr, ptr %6, align 8, !tbaa !22
  %161 = getelementptr inbounds nuw %struct.DeflickerContext, ptr %160, i32 0, i32 14
  store ptr @get_median_factor, ptr %161, align 8, !tbaa !50
  br label %180

162:                                              ; preds = %155
  %163 = load ptr, ptr %6, align 8, !tbaa !22
  %164 = getelementptr inbounds nuw %struct.DeflickerContext, ptr %163, i32 0, i32 14
  store ptr @get_am_factor, ptr %164, align 8, !tbaa !50
  br label %180

165:                                              ; preds = %155
  %166 = load ptr, ptr %6, align 8, !tbaa !22
  %167 = getelementptr inbounds nuw %struct.DeflickerContext, ptr %166, i32 0, i32 14
  store ptr @get_gm_factor, ptr %167, align 8, !tbaa !50
  br label %180

168:                                              ; preds = %155
  %169 = load ptr, ptr %6, align 8, !tbaa !22
  %170 = getelementptr inbounds nuw %struct.DeflickerContext, ptr %169, i32 0, i32 14
  store ptr @get_hm_factor, ptr %170, align 8, !tbaa !50
  br label %180

171:                                              ; preds = %155
  %172 = load ptr, ptr %6, align 8, !tbaa !22
  %173 = getelementptr inbounds nuw %struct.DeflickerContext, ptr %172, i32 0, i32 14
  store ptr @get_qm_factor, ptr %173, align 8, !tbaa !50
  br label %180

174:                                              ; preds = %155
  %175 = load ptr, ptr %6, align 8, !tbaa !22
  %176 = getelementptr inbounds nuw %struct.DeflickerContext, ptr %175, i32 0, i32 14
  store ptr @get_cm_factor, ptr %176, align 8, !tbaa !50
  br label %180

177:                                              ; preds = %155
  %178 = load ptr, ptr %6, align 8, !tbaa !22
  %179 = getelementptr inbounds nuw %struct.DeflickerContext, ptr %178, i32 0, i32 14
  store ptr @get_pm_factor, ptr %179, align 8, !tbaa !50
  br label %180

180:                                              ; preds = %155, %177, %174, %171, %168, %165, %162, %159
  store i32 0, ptr %2, align 4
  store i32 1, ptr %7, align 4
  br label %181

181:                                              ; preds = %180, %154
  call void @llvm.lifetime.end.p0(i64 8, ptr %6) #13
  call void @llvm.lifetime.end.p0(i64 8, ptr %5) #13
  call void @llvm.lifetime.end.p0(i64 8, ptr %4) #13
  %182 = load i32, ptr %2, align 4
  ret i32 %182
}