; Function Attrs: nounwind uwtable
define internal range(i32 -12, 1) i32 @config_input(ptr noundef readonly captures(none) %0) #1 {
  %2 = getelementptr inbounds nuw i8, ptr %0, i64 36
  %3 = load i32, ptr %2, align 4, !tbaa !59
  %4 = tail call ptr @av_pix_fmt_desc_get(i32 noundef %3) #14
  %5 = getelementptr inbounds nuw i8, ptr %0, i64 16
  %6 = load ptr, ptr %5, align 8, !tbaa !28
  %7 = getelementptr inbounds nuw i8, ptr %6, i64 72
  %8 = load ptr, ptr %7, align 8, !tbaa !4
  %9 = getelementptr inbounds nuw i8, ptr %4, i64 8
  %10 = load i8, ptr %9, align 8, !tbaa !60
  %11 = zext i8 %10 to i32
  %12 = getelementptr inbounds nuw i8, ptr %8, i64 28
  store i32 %11, ptr %12, align 4, !tbaa !56
  %13 = getelementptr inbounds nuw i8, ptr %0, i64 44
  %14 = load i32, ptr %13, align 4, !tbaa !50
  %15 = sub nsw i32 0, %14
  %16 = getelementptr inbounds nuw i8, ptr %4, i64 10
  %17 = load i8, ptr %16, align 2, !tbaa !63
  %18 = zext nneg i8 %17 to i32
  %19 = ashr i32 %15, %18
  %20 = sub nsw i32 0, %19
  %21 = getelementptr inbounds nuw i8, ptr %8, i64 48
  %22 = getelementptr inbounds nuw i8, ptr %8, i64 56
  store i32 %20, ptr %22, align 8, !tbaa !55
  %23 = getelementptr inbounds nuw i8, ptr %8, i64 52
  store i32 %20, ptr %23, align 4, !tbaa !55
  %24 = getelementptr inbounds nuw i8, ptr %0, i64 44
  %25 = load i32, ptr %24, align 4, !tbaa !50
  %26 = getelementptr inbounds nuw i8, ptr %8, i64 60
  store i32 %25, ptr %26, align 4, !tbaa !55
  store i32 %25, ptr %21, align 8, !tbaa !55
  %27 = getelementptr inbounds nuw i8, ptr %0, i64 40
  %28 = load i32, ptr %27, align 8, !tbaa !49
  %29 = sub nsw i32 0, %28
  %30 = getelementptr inbounds nuw i8, ptr %4, i64 9
  %31 = load i8, ptr %30, align 1, !tbaa !64
  %32 = zext nneg i8 %31 to i32
  %33 = ashr i32 %29, %32
  %34 = sub nsw i32 0, %33
  %35 = getelementptr inbounds nuw i8, ptr %8, i64 32
  %36 = getelementptr inbounds nuw i8, ptr %8, i64 40
  store i32 %34, ptr %36, align 8, !tbaa !55
  %37 = getelementptr inbounds nuw i8, ptr %8, i64 36
  store i32 %34, ptr %37, align 4, !tbaa !55
  %38 = getelementptr inbounds nuw i8, ptr %0, i64 40
  %39 = load i32, ptr %38, align 8, !tbaa !49
  %40 = getelementptr inbounds nuw i8, ptr %8, i64 44
  store i32 %39, ptr %40, align 4, !tbaa !55
  store i32 %39, ptr %35, align 8, !tbaa !55
  %41 = getelementptr inbounds nuw i8, ptr %4, i64 40
  %42 = load i32, ptr %41, align 8, !tbaa !65
  %43 = getelementptr inbounds nuw i8, ptr %8, i64 24
  store i32 %42, ptr %43, align 8, !tbaa !57
  %44 = icmp eq i32 %42, 8
  %spec.select = select i1 %44, ptr @deflicker8, ptr @deflicker16
  %spec.select46 = select i1 %44, ptr @calc_avgy8, ptr @calc_avgy16
  %45 = getelementptr inbounds nuw i8, ptr %8, i64 2168
  store ptr %spec.select, ptr %45, align 8, !tbaa !53
  %46 = getelementptr inbounds nuw i8, ptr %8, i64 2160
  store ptr %spec.select46, ptr %46, align 8, !tbaa !45
  %47 = shl nuw i32 1, %42
  %48 = sext i32 %47 to i64
  %49 = tail call noalias ptr @av_calloc(i64 noundef %48, i64 noundef 8) #14
  %50 = getelementptr inbounds nuw i8, ptr %8, i64 64
  store ptr %49, ptr %50, align 8, !tbaa !67
  %.not = icmp eq ptr %49, null
  br i1 %.not, label %57, label %51

51:                                               ; preds = %1
  %52 = getelementptr inbounds nuw i8, ptr %8, i64 12
  %53 = load i32, ptr %52, align 4, !tbaa !68
  %54 = icmp ult i32 %53, 7
  br i1 %54, label %switch.lookup, label %57

switch.lookup:                                    ; preds = %51
  %55 = zext nneg i32 %53 to i64
  %switch.gep = getelementptr inbounds nuw [7 x ptr], ptr @switch.table.config_input, i64 0, i64 %55
  %switch.load = load ptr, ptr %switch.gep, align 8
  %56 = getelementptr inbounds nuw i8, ptr %8, i64 2152
  store ptr %switch.load, ptr %56, align 8, !tbaa !51
  br label %57

57:                                               ; preds = %51, %switch.lookup, %1
  %.0 = phi i32 [ -12, %1 ], [ 0, %51 ], [ 0, %switch.lookup ]
  ret i32 %.0
}